target datalayout = "e-m:e-p270:32:32-p271:32:32-p272:64:64-i64:64-i128:128-f80:128-n8:16:32:64-S128"
target triple = "x86_64-pc-linux-gnu"

%"class.llvm::SmallVectorBase" = type { ptr, i32, i32 }
%"class.llvm::BlockFrequency" = type { i64 }
%"class.llvm::SpillPlacement" = type { %"class.llvm::MachineFunctionPass", ptr, ptr, ptr, ptr, ptr, %"class.llvm::SmallVector.9", %"class.llvm::SmallVector.9", %"class.llvm::SmallVector.14", %"class.llvm::BlockFrequency", %"class.llvm::SparseSet" }
%"class.llvm::MachineFunctionPass" = type { %"class.llvm::FunctionPass.base", %"class.llvm::MachineFunctionProperties", %"class.llvm::MachineFunctionProperties", %"class.llvm::MachineFunctionProperties" }
%"class.llvm::FunctionPass.base" = type { %"class.llvm::Pass.base" }
%"class.llvm::Pass.base" = type <{ ptr, ptr, ptr, i32 }>
%"class.llvm::MachineFunctionProperties" = type { %"class.std::bitset" }
%"class.std::bitset" = type { %"struct.std::_Base_bitset" }
%"struct.std::_Base_bitset" = type { i64 }
%"class.llvm::SmallVector.9" = type { %"class.llvm::SmallVectorImpl.10", %"struct.llvm::SmallVectorStorage.13" }
%"class.llvm::SmallVectorImpl.10" = type { %"class.llvm::SmallVectorTemplateBase.11" }
%"class.llvm::SmallVectorTemplateBase.11" = type { %"class.llvm::SmallVectorTemplateCommon.12" }
%"class.llvm::SmallVectorTemplateCommon.12" = type { %"class.llvm::SmallVectorBase" }
%"struct.llvm::SmallVectorStorage.13" = type { [32 x i8] }
%"class.llvm::SmallVector.14" = type { %"class.llvm::SmallVectorImpl.15", %"struct.llvm::SmallVectorStorage.18" }
%"class.llvm::SmallVectorImpl.15" = type { %"class.llvm::SmallVectorTemplateBase.16" }
%"class.llvm::SmallVectorTemplateBase.16" = type { %"class.llvm::SmallVectorTemplateCommon.17" }
%"class.llvm::SmallVectorTemplateCommon.17" = type { %"class.llvm::SmallVectorBase" }
%"struct.llvm::SmallVectorStorage.18" = type { [64 x i8] }
%"class.llvm::SparseSet" = type <{ %"class.llvm::SmallVector.9", ptr, i32, [4 x i8] }>
%"struct.llvm::SpillPlacement::Node" = type { %"class.llvm::BlockFrequency", %"class.llvm::BlockFrequency", i32, %"class.llvm::SmallVector.103", %"class.llvm::BlockFrequency" }
%"class.llvm::SmallVector.103" = type { %"class.llvm::SmallVectorImpl.104", %"struct.llvm::SmallVectorStorage.107" }
%"class.llvm::SmallVectorImpl.104" = type { %"class.llvm::SmallVectorTemplateBase.105" }
%"class.llvm::SmallVectorTemplateBase.105" = type { %"class.llvm::SmallVectorTemplateCommon.106" }
%"class.llvm::SmallVectorTemplateCommon.106" = type { %"class.llvm::SmallVectorBase" }
%"struct.llvm::SmallVectorStorage.107" = type { [64 x i8] }
%"class.llvm::EdgeBundles" = type { %"class.llvm::MachineFunctionPass", ptr, %"class.llvm::IntEqClasses", %"class.llvm::SmallVector.98" }
%"class.llvm::IntEqClasses" = type <{ %"class.llvm::SmallVector.9", i32, [4 x i8] }>
%"class.llvm::SmallVector.98" = type { %"class.llvm::SmallVectorImpl.99", %"struct.llvm::SmallVectorStorage.102" }
%"class.llvm::SmallVectorImpl.99" = type { %"class.llvm::SmallVectorTemplateBase.100" }
%"class.llvm::SmallVectorTemplateBase.100" = type { %"class.llvm::SmallVectorTemplateCommon.101" }
%"class.llvm::SmallVectorTemplateCommon.101" = type { %"class.llvm::SmallVectorBase" }
%"struct.llvm::SmallVectorStorage.102" = type { [192 x i8] }
%"class.llvm::ArrayRef.157" = type { ptr, i64 }
%"struct.llvm::SpillPlacement::BlockConstraint" = type { i32, i16, i8 }

; Function Attrs: mustprogress nounwind uwtable
define linkonce_odr hidden noundef ptr @_ZNK4llvm25SmallVectorTemplateCommonIjvE5beginEv(ptr noundef nonnull align 8 dereferenceable(16) %0) #0 comdat align 2 {
  %2 = alloca ptr, align 8
  store ptr %0, ptr %2, align 8
  %3 = load ptr, ptr %2, align 8
  %4 = getelementptr inbounds nuw %"class.llvm::SmallVectorBase", ptr %3, i32 0, i32 0
  %5 = load ptr, ptr %4, align 8
  ret ptr %5
}

; Function Attrs: mustprogress nounwind uwtable
define linkonce_odr hidden void @_ZN4llvm14BlockFrequencyC2Em(ptr noundef nonnull align 8 dereferenceable(8) %0, i64 noundef %1) unnamed_addr #0 comdat align 2 {
  %3 = alloca ptr, align 8
  %4 = alloca i64, align 8
  store ptr %0, ptr %3, align 8
  store i64 %1, ptr %4, align 8
  %5 = load ptr, ptr %3, align 8
  %6 = getelementptr inbounds nuw %"class.llvm::BlockFrequency", ptr %5, i32 0, i32 0
  %7 = load i64, ptr %4, align 8
  store i64 %7, ptr %6, align 8
  ret void
}

; Function Attrs: mustprogress nounwind uwtable
define linkonce_odr hidden noundef nonnull align 4 dereferenceable(4) ptr @_ZNK4llvm25SmallVectorTemplateCommonIjvEixEm(ptr noundef nonnull align 8 dereferenceable(16) %0, i64 noundef %1) #0 comdat align 2 {
  %3 = alloca ptr, align 8
  %4 = alloca i64, align 8
  store ptr %0, ptr %3, align 8
  store i64 %1, ptr %4, align 8
  %5 = load ptr, ptr %3, align 8
  %6 = call noundef ptr @_ZNK4llvm25SmallVectorTemplateCommonIjvE5beginEv(ptr noundef nonnull align 8 dereferenceable(16) %5)
  %7 = load i64, ptr %4, align 8
  %8 = getelementptr inbounds i32, ptr %6, i64 %7
  ret ptr %8
}

; Function Attrs: mustprogress nounwind uwtable
define linkonce_odr hidden i64 @_ZN4llvm14BlockFrequency3maxEv() #0 comdat align 2 {
  %1 = alloca %"class.llvm::BlockFrequency", align 8
  call void @_ZN4llvm14BlockFrequencyC2Em(ptr noundef nonnull align 8 dereferenceable(8) %1, i64 noundef -1)
  %2 = getelementptr inbounds nuw %"class.llvm::BlockFrequency", ptr %1, i32 0, i32 0
  %3 = load i64, ptr %2, align 8
  ret i64 %3
}

; Function Attrs: mustprogress nounwind uwtable
define linkonce_odr hidden noundef nonnull align 8 dereferenceable(8) ptr @_ZN4llvm14BlockFrequencypLES0_(ptr noundef nonnull align 8 dereferenceable(8) %0, i64 %1) #0 comdat align 2 {
  %3 = alloca %"class.llvm::BlockFrequency", align 8
  %4 = alloca ptr, align 8
  %5 = alloca i64, align 8
  %6 = getelementptr inbounds nuw %"class.llvm::BlockFrequency", ptr %3, i32 0, i32 0
  store i64 %1, ptr %6, align 8
  store ptr %0, ptr %4, align 8
  %7 = load ptr, ptr %4, align 8
  %8 = getelementptr inbounds nuw %"class.llvm::BlockFrequency", ptr %3, i32 0, i32 0
  %9 = load i64, ptr %8, align 8
  store i64 %9, ptr %5, align 8
  %10 = getelementptr inbounds nuw %"class.llvm::BlockFrequency", ptr %3, i32 0, i32 0
  %11 = load i64, ptr %10, align 8
  %12 = getelementptr inbounds nuw %"class.llvm::BlockFrequency", ptr %7, i32 0, i32 0
  %13 = load i64, ptr %12, align 8
  %14 = add i64 %13, %11
  store i64 %14, ptr %12, align 8
  %15 = getelementptr inbounds nuw %"class.llvm::BlockFrequency", ptr %7, i32 0, i32 0
  %16 = load i64, ptr %15, align 8
  %17 = load i64, ptr %5, align 8
  %18 = icmp ult i64 %16, %17
  br i1 %18, label %19, label %21

19:                                               ; preds = %2
  %20 = getelementptr inbounds nuw %"class.llvm::BlockFrequency", ptr %7, i32 0, i32 0
  store i64 -1, ptr %20, align 8
  br label %21

21:                                               ; preds = %19, %2
  ret ptr %7
}

; Function Attrs: mustprogress nounwind uwtable
define linkonce_odr hidden noundef i32 @_ZNK4llvm12IntEqClassesixEj(ptr noundef nonnull align 8 dereferenceable(52) %0, i32 noundef %1) #0 comdat align 2 {
  %3 = alloca ptr, align 8
  %4 = alloca i32, align 4
  store ptr %0, ptr %3, align 8
  store i32 %1, ptr %4, align 4
  %5 = load ptr, ptr %3, align 8
  %6 = getelementptr inbounds nuw %"class.llvm::IntEqClasses", ptr %5, i32 0, i32 0
  %7 = load i32, ptr %4, align 4
  %8 = zext i32 %7 to i64
  %9 = call noundef nonnull align 4 dereferenceable(4) ptr @_ZNK4llvm25SmallVectorTemplateCommonIjvEixEm(ptr noundef nonnull align 8 dereferenceable(16) %6, i64 noundef %8)
  %10 = load i32, ptr %9, align 4
  ret i32 %10
}

; Function Attrs: mustprogress nounwind uwtable
define linkonce_odr hidden noundef ptr @_ZN4llvm25SmallVectorTemplateCommonINS_14BlockFrequencyEvE5beginEv(ptr noundef nonnull align 8 dereferenceable(16) %0) #0 comdat align 2 {
  %2 = alloca ptr, align 8
  store ptr %0, ptr %2, align 8
  %3 = load ptr, ptr %2, align 8
  %4 = getelementptr inbounds nuw %"class.llvm::SmallVectorBase", ptr %3, i32 0, i32 0
  %5 = load ptr, ptr %4, align 8
  ret ptr %5
}

; Function Attrs: mustprogress nounwind uwtable
define linkonce_odr hidden void @_ZN4llvm14SpillPlacement4Node7addBiasENS_14BlockFrequencyENS0_16BorderConstraintE(ptr noundef nonnull align 8 dereferenceable(112) %0, i64 %1, i32 noundef %2) #0 comdat align 2 {
  %4 = alloca %"class.llvm::BlockFrequency", align 8
  %5 = alloca ptr, align 8
  %6 = alloca i32, align 4
  %7 = alloca %"class.llvm::BlockFrequency", align 8
  %8 = alloca %"class.llvm::BlockFrequency", align 8
  %9 = alloca %"class.llvm::BlockFrequency", align 8
  %10 = getelementptr inbounds nuw %"class.llvm::BlockFrequency", ptr %4, i32 0, i32 0
  store i64 %1, ptr %10, align 8
  store ptr %0, ptr %5, align 8
  store i32 %2, ptr %6, align 4
  %11 = load ptr, ptr %5, align 8
  %12 = load i32, ptr %6, align 4
  switch i32 %12, label %13 [
    i32 1, label %14
    i32 2, label %19
    i32 4, label %24
  ]

13:                                               ; preds = %3
  br label %28

14:                                               ; preds = %3
  call void @llvm.memcpy.p0.p0.i64(ptr align 8 %7, ptr align 8 %4, i64 8, i1 false)
  %15 = getelementptr inbounds nuw %"struct.llvm::SpillPlacement::Node", ptr %11, i32 0, i32 1
  %16 = getelementptr inbounds nuw %"class.llvm::BlockFrequency", ptr %7, i32 0, i32 0
  %17 = load i64, ptr %16, align 8
  %18 = call noundef nonnull align 8 dereferenceable(8) ptr @_ZN4llvm14BlockFrequencypLES0_(ptr noundef nonnull align 8 dereferenceable(8) %15, i64 %17)
  br label %28

19:                                               ; preds = %3
  call void @llvm.memcpy.p0.p0.i64(ptr align 8 %8, ptr align 8 %4, i64 8, i1 false)
  %20 = getelementptr inbounds nuw %"struct.llvm::SpillPlacement::Node", ptr %11, i32 0, i32 0
  %21 = getelementptr inbounds nuw %"class.llvm::BlockFrequency", ptr %8, i32 0, i32 0
  %22 = load i64, ptr %21, align 8
  %23 = call noundef nonnull align 8 dereferenceable(8) ptr @_ZN4llvm14BlockFrequencypLES0_(ptr noundef nonnull align 8 dereferenceable(8) %20, i64 %22)
  br label %28

24:                                               ; preds = %3
  %25 = call i64 @_ZN4llvm14BlockFrequency3maxEv()
  %26 = getelementptr inbounds nuw %"class.llvm::BlockFrequency", ptr %9, i32 0, i32 0
  store i64 %25, ptr %26, align 8
  %27 = getelementptr inbounds nuw %"struct.llvm::SpillPlacement::Node", ptr %11, i32 0, i32 0
  call void @llvm.memcpy.p0.p0.i64(ptr align 8 %27, ptr align 8 %9, i64 8, i1 false)
  br label %28

28:                                               ; preds = %24, %19, %14, %13
  ret void
}

; Function Attrs: mustprogress nounwind uwtable
define linkonce_odr hidden noundef i32 @_ZNK4llvm11EdgeBundles9getBundleEjb(ptr noundef nonnull align 8 dereferenceable(328) %0, i32 noundef %1, i1 noundef zeroext %2) #0 comdat align 2 {
  %4 = alloca ptr, align 8
  %5 = alloca i32, align 4
  %6 = alloca i8, align 1
  store ptr %0, ptr %4, align 8
  store i32 %1, ptr %5, align 4
  %7 = zext i1 %2 to i8
  store i8 %7, ptr %6, align 1
  %8 = load ptr, ptr %4, align 8
  %9 = getelementptr inbounds nuw %"class.llvm::EdgeBundles", ptr %8, i32 0, i32 2
  %10 = load i32, ptr %5, align 4
  %11 = mul i32 2, %10
  %12 = load i8, ptr %6, align 1
  %13 = trunc i8 %12 to i1
  %14 = zext i1 %13 to i32
  %15 = add i32 %11, %14
  %16 = call noundef i32 @_ZNK4llvm12IntEqClassesixEj(ptr noundef nonnull align 8 dereferenceable(52) %9, i32 noundef %15)
  ret i32 %16
}

; Function Attrs: mustprogress nounwind uwtable
define linkonce_odr hidden noundef nonnull align 8 dereferenceable(8) ptr @_ZN4llvm25SmallVectorTemplateCommonINS_14BlockFrequencyEvEixEm(ptr noundef nonnull align 8 dereferenceable(16) %0, i64 noundef %1) #0 comdat align 2 {
  %3 = alloca ptr, align 8
  %4 = alloca i64, align 8
  store ptr %0, ptr %3, align 8
  store i64 %1, ptr %4, align 8
  %5 = load ptr, ptr %3, align 8
  %6 = call noundef ptr @_ZN4llvm25SmallVectorTemplateCommonINS_14BlockFrequencyEvE5beginEv(ptr noundef nonnull align 8 dereferenceable(16) %5)
  %7 = load i64, ptr %4, align 8
  %8 = getelementptr inbounds %"class.llvm::BlockFrequency", ptr %6, i64 %7
  ret ptr %8
}

; Function Attrs: mustprogress nounwind uwtable
define linkonce_odr hidden noundef ptr @_ZNK4llvm8ArrayRefINS_14SpillPlacement15BlockConstraintEE3endEv(ptr noundef nonnull align 8 dereferenceable(16) %0) #0 comdat align 2 {
  %2 = alloca ptr, align 8
  store ptr %0, ptr %2, align 8
  %3 = load ptr, ptr %2, align 8
  %4 = getelementptr inbounds nuw %"class.llvm::ArrayRef.157", ptr %3, i32 0, i32 0
  %5 = load ptr, ptr %4, align 8
  %6 = getelementptr inbounds nuw %"class.llvm::ArrayRef.157", ptr %3, i32 0, i32 1
  %7 = load i64, ptr %6, align 8
  %8 = getelementptr inbounds %"struct.llvm::SpillPlacement::BlockConstraint", ptr %5, i64 %7
  ret ptr %8
}

; Function Attrs: mustprogress nounwind uwtable
define linkonce_odr hidden noundef ptr @_ZNK4llvm8ArrayRefINS_14SpillPlacement15BlockConstraintEE5beginEv(ptr noundef nonnull align 8 dereferenceable(16) %0) #0 comdat align 2 {
  %2 = alloca ptr, align 8
  store ptr %0, ptr %2, align 8
  %3 = load ptr, ptr %2, align 8
  %4 = getelementptr inbounds nuw %"class.llvm::ArrayRef.157", ptr %3, i32 0, i32 0
  %5 = load ptr, ptr %4, align 8
  ret ptr %5
}

; Function Attrs: mustprogress nounwind uwtable
define dso_local void @_ZN4llvm14SpillPlacement14addConstraintsENS_8ArrayRefINS0_15BlockConstraintEEE(ptr noundef nonnull align 8 dereferenceable(344) %0, ptr %1, i64 %2) #0 align 2 {
  %4 = alloca %"class.llvm::ArrayRef.157", align 8
  %5 = alloca ptr, align 8
  %6 = alloca ptr, align 8
  %7 = alloca ptr, align 8
  %8 = alloca ptr, align 8
  %9 = alloca ptr, align 8
  %10 = alloca %"class.llvm::BlockFrequency", align 8
  %11 = alloca i32, align 4
  %12 = alloca %"class.llvm::BlockFrequency", align 8
  %13 = alloca i32, align 4
  %14 = alloca %"class.llvm::BlockFrequency", align 8
  %15 = getelementptr inbounds nuw { ptr, i64 }, ptr %4, i32 0, i32 0
  store ptr %1, ptr %15, align 8
  %16 = getelementptr inbounds nuw { ptr, i64 }, ptr %4, i32 0, i32 1
  store i64 %2, ptr %16, align 8
  store ptr %0, ptr %5, align 8
  %17 = load ptr, ptr %5, align 8
  store ptr %4, ptr %6, align 8
  %18 = load ptr, ptr %6, align 8
  %19 = call noundef ptr @_ZNK4llvm8ArrayRefINS_14SpillPlacement15BlockConstraintEE5beginEv(ptr noundef nonnull align 8 dereferenceable(16) %18)
  store ptr %19, ptr %7, align 8
  %20 = load ptr, ptr %6, align 8
  %21 = call noundef ptr @_ZNK4llvm8ArrayRefINS_14SpillPlacement15BlockConstraintEE3endEv(ptr noundef nonnull align 8 dereferenceable(16) %20)
  store ptr %21, ptr %8, align 8
  br label %22

22:                                               ; preds = %88, %3
  %23 = load ptr, ptr %7, align 8
  %24 = load ptr, ptr %8, align 8
  %25 = icmp ne ptr %23, %24
  br i1 %25, label %26, label %91

26:                                               ; preds = %22
  %27 = load ptr, ptr %7, align 8
  store ptr %27, ptr %9, align 8
  %28 = getelementptr inbounds nuw %"class.llvm::SpillPlacement", ptr %17, i32 0, i32 8
  %29 = load ptr, ptr %9, align 8
  %30 = getelementptr inbounds nuw %"struct.llvm::SpillPlacement::BlockConstraint", ptr %29, i32 0, i32 0
  %31 = load i32, ptr %30, align 4
  %32 = zext i32 %31 to i64
  %33 = call noundef nonnull align 8 dereferenceable(8) ptr @_ZN4llvm25SmallVectorTemplateCommonINS_14BlockFrequencyEvEixEm(ptr noundef nonnull align 8 dereferenceable(16) %28, i64 noundef %32)
  call void @llvm.memcpy.p0.p0.i64(ptr align 8 %10, ptr align 8 %33, i64 8, i1 false)
  %34 = load ptr, ptr %9, align 8
  %35 = getelementptr inbounds nuw %"struct.llvm::SpillPlacement::BlockConstraint", ptr %34, i32 0, i32 1
  %36 = load i16, ptr %35, align 4
  %37 = and i16 %36, 255
  %38 = zext i16 %37 to i32
  %39 = icmp ne i32 %38, 0
  br i1 %39, label %40, label %60

40:                                               ; preds = %26
  %41 = getelementptr inbounds nuw %"class.llvm::SpillPlacement", ptr %17, i32 0, i32 2
  %42 = load ptr, ptr %41, align 8
  %43 = load ptr, ptr %9, align 8
  %44 = getelementptr inbounds nuw %"struct.llvm::SpillPlacement::BlockConstraint", ptr %43, i32 0, i32 0
  %45 = load i32, ptr %44, align 4
  %46 = call noundef i32 @_ZNK4llvm11EdgeBundles9getBundleEjb(ptr noundef nonnull align 8 dereferenceable(328) %42, i32 noundef %45, i1 noundef zeroext false)
  store i32 %46, ptr %11, align 4
  %47 = load i32, ptr %11, align 4
  call void @_ZN4llvm14SpillPlacement8activateEj(ptr noundef nonnull align 8 dereferenceable(344) %17, i32 noundef %47)
  %48 = getelementptr inbounds nuw %"class.llvm::SpillPlacement", ptr %17, i32 0, i32 4
  %49 = load ptr, ptr %48, align 8
  %50 = load i32, ptr %11, align 4
  %51 = zext i32 %50 to i64
  %52 = getelementptr inbounds %"struct.llvm::SpillPlacement::Node", ptr %49, i64 %51
  call void @llvm.memcpy.p0.p0.i64(ptr align 8 %12, ptr align 8 %10, i64 8, i1 false)
  %53 = load ptr, ptr %9, align 8
  %54 = getelementptr inbounds nuw %"struct.llvm::SpillPlacement::BlockConstraint", ptr %53, i32 0, i32 1
  %55 = load i16, ptr %54, align 4
  %56 = and i16 %55, 255
  %57 = zext i16 %56 to i32
  %58 = getelementptr inbounds nuw %"class.llvm::BlockFrequency", ptr %12, i32 0, i32 0
  %59 = load i64, ptr %58, align 8
  call void @_ZN4llvm14SpillPlacement4Node7addBiasENS_14BlockFrequencyENS0_16BorderConstraintE(ptr noundef nonnull align 8 dereferenceable(112) %52, i64 %59, i32 noundef %57)
  br label %60

60:                                               ; preds = %40, %26
  %61 = load ptr, ptr %9, align 8
  %62 = getelementptr inbounds nuw %"struct.llvm::SpillPlacement::BlockConstraint", ptr %61, i32 0, i32 1
  %63 = load i16, ptr %62, align 4
  %64 = lshr i16 %63, 8
  %65 = zext i16 %64 to i32
  %66 = icmp ne i32 %65, 0
  br i1 %66, label %67, label %87

67:                                               ; preds = %60
  %68 = getelementptr inbounds nuw %"class.llvm::SpillPlacement", ptr %17, i32 0, i32 2
  %69 = load ptr, ptr %68, align 8
  %70 = load ptr, ptr %9, align 8
  %71 = getelementptr inbounds nuw %"struct.llvm::SpillPlacement::BlockConstraint", ptr %70, i32 0, i32 0
  %72 = load i32, ptr %71, align 4
  %73 = call noundef i32 @_ZNK4llvm11EdgeBundles9getBundleEjb(ptr noundef nonnull align 8 dereferenceable(328) %69, i32 noundef %72, i1 noundef zeroext true)
  store i32 %73, ptr %13, align 4
  %74 = load i32, ptr %13, align 4
  call void @_ZN4llvm14SpillPlacement8activateEj(ptr noundef nonnull align 8 dereferenceable(344) %17, i32 noundef %74)
  %75 = getelementptr inbounds nuw %"class.llvm::SpillPlacement", ptr %17, i32 0, i32 4
  %76 = load ptr, ptr %75, align 8
  %77 = load i32, ptr %13, align 4
  %78 = zext i32 %77 to i64
  %79 = getelementptr inbounds %"struct.llvm::SpillPlacement::Node", ptr %76, i64 %78
  call void @llvm.memcpy.p0.p0.i64(ptr align 8 %14, ptr align 8 %10, i64 8, i1 false)
  %80 = load ptr, ptr %9, align 8
  %81 = getelementptr inbounds nuw %"struct.llvm::SpillPlacement::BlockConstraint", ptr %80, i32 0, i32 1
  %82 = load i16, ptr %81, align 4
  %83 = lshr i16 %82, 8
  %84 = zext i16 %83 to i32
  %85 = getelementptr inbounds nuw %"class.llvm::BlockFrequency", ptr %14, i32 0, i32 0
  %86 = load i64, ptr %85, align 8
  call void @_ZN4llvm14SpillPlacement4Node7addBiasENS_14BlockFrequencyENS0_16BorderConstraintE(ptr noundef nonnull align 8 dereferenceable(112) %79, i64 %86, i32 noundef %84)
  br label %87

87:                                               ; preds = %67, %60
  br label %88

88:                                               ; preds = %87
  %89 = load ptr, ptr %7, align 8
  %90 = getelementptr inbounds %"struct.llvm::SpillPlacement::BlockConstraint", ptr %89, i32 1
  store ptr %90, ptr %7, align 8
  br label %22

91:                                               ; preds = %22
  ret void
}