; Function Attrs: mustprogress nounwind uwtable
define dso_local void @_ZN4llvm14SpillPlacement14addConstraintsENS_8ArrayRefINS0_15BlockConstraintEEE(ptr noundef nonnull align 8 dereferenceable(344) %0, ptr readonly %1, i64 %2) local_unnamed_addr #0 align 2 {
  %4 = getelementptr inbounds %"struct.llvm::SpillPlacement::BlockConstraint", ptr %1, i64 %2
  %.not27 = icmp eq i64 %2, 0
  br i1 %.not27, label %._crit_edge, label %.lr.ph

.lr.ph:                                           ; preds = %3
  %5 = getelementptr inbounds nuw i8, ptr %0, i64 192
  %6 = getelementptr inbounds nuw i8, ptr %0, i64 64
  %7 = getelementptr inbounds nuw i8, ptr %0, i64 80
  br label %8

8:                                                ; preds = %.lr.ph, %_ZN4llvm14SpillPlacement4Node7addBiasENS_14BlockFrequencyENS0_16BorderConstraintE.exit24
  %.028 = phi ptr [ %1, %.lr.ph ], [ %56, %_ZN4llvm14SpillPlacement4Node7addBiasENS_14BlockFrequencyENS0_16BorderConstraintE.exit24 ]
  %9 = load i32, ptr %.028, align 4
  %10 = zext i32 %9 to i64
  %11 = load ptr, ptr %5, align 8
  %12 = getelementptr inbounds %"class.llvm::BlockFrequency", ptr %11, i64 %10
  %.sroa.05.0.copyload = load i64, ptr %12, align 8
  %13 = getelementptr inbounds nuw i8, ptr %.028, i64 4
  %14 = load i16, ptr %13, align 4
  %15 = and i16 %14, 255
  %.not20 = icmp eq i16 %15, 0
  br i1 %.not20, label %_ZN4llvm14SpillPlacement4Node7addBiasENS_14BlockFrequencyENS0_16BorderConstraintE.exit, label %16

16:                                               ; preds = %8
  %17 = load ptr, ptr %6, align 8
  %18 = getelementptr inbounds nuw i8, ptr %17, i64 64
  %19 = shl i32 %9, 1
  %20 = zext i32 %19 to i64
  %21 = load ptr, ptr %18, align 8
  %22 = getelementptr inbounds i32, ptr %21, i64 %20
  %23 = load i32, ptr %22, align 4
  tail call void @_ZN4llvm14SpillPlacement8activateEj(ptr noundef nonnull align 8 dereferenceable(344) %0, i32 noundef %23)
  %24 = load ptr, ptr %7, align 8
  %25 = zext i32 %23 to i64
  %26 = getelementptr inbounds %"struct.llvm::SpillPlacement::Node", ptr %24, i64 %25
  %27 = load i16, ptr %13, align 4
  %trunc = trunc i16 %27 to i8
  switch i8 %trunc, label %_ZN4llvm14SpillPlacement4Node7addBiasENS_14BlockFrequencyENS0_16BorderConstraintE.exit [
    i8 1, label %28
    i8 2, label %31
    i8 4, label %33
  ]

28:                                               ; preds = %16
  %29 = getelementptr inbounds nuw i8, ptr %26, i64 8
  %30 = load i64, ptr %29, align 8
  %spec.select.i.i = tail call i64 @llvm.uadd.sat.i64(i64 %.sroa.05.0.copyload, i64 %30)
  store i64 %spec.select.i.i, ptr %29, align 8
  br label %_ZN4llvm14SpillPlacement4Node7addBiasENS_14BlockFrequencyENS0_16BorderConstraintE.exitthread-pre-split

31:                                               ; preds = %16
  %32 = load i64, ptr %26, align 8
  %spec.select.i5.i = tail call i64 @llvm.uadd.sat.i64(i64 %.sroa.05.0.copyload, i64 %32)
  store i64 %spec.select.i5.i, ptr %26, align 8
  br label %_ZN4llvm14SpillPlacement4Node7addBiasENS_14BlockFrequencyENS0_16BorderConstraintE.exitthread-pre-split

33:                                               ; preds = %16
  store i64 -1, ptr %26, align 8
  br label %_ZN4llvm14SpillPlacement4Node7addBiasENS_14BlockFrequencyENS0_16BorderConstraintE.exitthread-pre-split

_ZN4llvm14SpillPlacement4Node7addBiasENS_14BlockFrequencyENS0_16BorderConstraintE.exitthread-pre-split: ; preds = %28, %31, %33
  %.pr = load i16, ptr %13, align 4
  br label %_ZN4llvm14SpillPlacement4Node7addBiasENS_14BlockFrequencyENS0_16BorderConstraintE.exit

_ZN4llvm14SpillPlacement4Node7addBiasENS_14BlockFrequencyENS0_16BorderConstraintE.exit: ; preds = %_ZN4llvm14SpillPlacement4Node7addBiasENS_14BlockFrequencyENS0_16BorderConstraintE.exitthread-pre-split, %16, %8
  %34 = phi i16 [ %.pr, %_ZN4llvm14SpillPlacement4Node7addBiasENS_14BlockFrequencyENS0_16BorderConstraintE.exitthread-pre-split ], [ %27, %16 ], [ %14, %8 ]
  %.not21 = icmp ult i16 %34, 256
  br i1 %.not21, label %_ZN4llvm14SpillPlacement4Node7addBiasENS_14BlockFrequencyENS0_16BorderConstraintE.exit24, label %35

35:                                               ; preds = %_ZN4llvm14SpillPlacement4Node7addBiasENS_14BlockFrequencyENS0_16BorderConstraintE.exit
  %36 = load ptr, ptr %6, align 8
  %37 = load i32, ptr %.028, align 4
  %38 = getelementptr inbounds nuw i8, ptr %36, i64 64
  %39 = shl i32 %37, 1
  %40 = or disjoint i32 %39, 1
  %41 = zext i32 %40 to i64
  %42 = load ptr, ptr %38, align 8
  %43 = getelementptr inbounds i32, ptr %42, i64 %41
  %44 = load i32, ptr %43, align 4
  tail call void @_ZN4llvm14SpillPlacement8activateEj(ptr noundef nonnull align 8 dereferenceable(344) %0, i32 noundef %44)
  %45 = load ptr, ptr %7, align 8
  %46 = zext i32 %44 to i64
  %47 = getelementptr inbounds %"struct.llvm::SpillPlacement::Node", ptr %45, i64 %46
  %48 = load i16, ptr %13, align 4
  %49 = lshr i16 %48, 8
  %trunc26 = trunc nuw i16 %49 to i8
  switch i8 %trunc26, label %_ZN4llvm14SpillPlacement4Node7addBiasENS_14BlockFrequencyENS0_16BorderConstraintE.exit24 [
    i8 1, label %50
    i8 2, label %53
    i8 4, label %55
  ]

50:                                               ; preds = %35
  %51 = getelementptr inbounds nuw i8, ptr %47, i64 8
  %52 = load i64, ptr %51, align 8
  %spec.select.i.i23 = tail call i64 @llvm.uadd.sat.i64(i64 %.sroa.05.0.copyload, i64 %52)
  store i64 %spec.select.i.i23, ptr %51, align 8
  br label %_ZN4llvm14SpillPlacement4Node7addBiasENS_14BlockFrequencyENS0_16BorderConstraintE.exit24

53:                                               ; preds = %35
  %54 = load i64, ptr %47, align 8
  %spec.select.i5.i22 = tail call i64 @llvm.uadd.sat.i64(i64 %.sroa.05.0.copyload, i64 %54)
  store i64 %spec.select.i5.i22, ptr %47, align 8
  br label %_ZN4llvm14SpillPlacement4Node7addBiasENS_14BlockFrequencyENS0_16BorderConstraintE.exit24

55:                                               ; preds = %35
  store i64 -1, ptr %47, align 8
  br label %_ZN4llvm14SpillPlacement4Node7addBiasENS_14BlockFrequencyENS0_16BorderConstraintE.exit24

_ZN4llvm14SpillPlacement4Node7addBiasENS_14BlockFrequencyENS0_16BorderConstraintE.exit24: ; preds = %55, %53, %50, %35, %_ZN4llvm14SpillPlacement4Node7addBiasENS_14BlockFrequencyENS0_16BorderConstraintE.exit
  %56 = getelementptr inbounds i8, ptr %.028, i64 8
  %.not = icmp eq ptr %56, %4
  br i1 %.not, label %._crit_edge, label %8

._crit_edge:                                      ; preds = %_ZN4llvm14SpillPlacement4Node7addBiasENS_14BlockFrequencyENS0_16BorderConstraintE.exit24, %3
  ret void
}